(dp1
S'layout'
p2
(ilayout
Layout
p3
(dp4
S'capsules'
p5
(lp6
(I6
I5
tp7
a(I25
I10
tp8
asS'numGhosts'
p9
I4
sS'food'
p10
(igame
Grid
p11
(dp12
S'CELLS_PER_INT'
p13
I30
sS'width'
p14
I32
sS'data'
p15
(lp16
(lp17
I00
aI00
aI00
aI00
aI00
aI00
aI00
aI00
aI00
aI00
aI00
aI00
aI00
aI00
aI00
aI00
aa(lp18
I00
aI00
aI00
aI00
aI00
aI00
aI00
aI00
aI00
aI00
aI00
aI00
aI00
aI00
aI00
aI00
aa(lp19
I00
aI00
aI00
aI00
aI00
aI00
aI00
aI00
aI00
aI00
aI00
aI00
aI00
aI00
aI00
aI00
aa(lp20
I00
aI01
aI01
aI00
aI00
aI00
aI00
aI00
aI01
aI00
aI00
aI00
aI00
aI00
aI00
aI00
aa(lp21
I00
aI00
aI00
aI00
aI00
aI00
aI00
aI00
aI00
aI00
aI00
aI00
aI00
aI00
aI00
aI00
aa(lp22
I00
aI01
aI00
aI00
aI00
aI00
aI00
aI00
aI00
aI00
aI00
aI00
aI01
aI00
aI01
aI00
aa(lp23
I00
aI00
aI00
aI00
aI00
aI00
aI00
aI00
aI00
aI00
aI00
aI00
aI00
aI00
aI00
aI00
aa(lp24
I00
aI00
aI00
aI01
aI00
aI00
aI00
aI00
aI01
aI01
aI00
aI00
aI00
aI00
aI00
aI00
aa(lp25
I00
aI00
aI00
aI01
aI00
aI00
aI00
aI00
aI00
aI01
aI00
aI00
aI00
aI00
aI01
aI00
aa(lp26
I00
aI00
aI00
aI00
aI00
aI01
aI00
aI00
aI00
aI00
aI00
aI01
aI00
aI00
aI00
aI00
aa(lp27
I00
aI00
aI00
aI01
aI00
aI00
aI00
aI01
aI00
aI01
aI00
aI01
aI00
aI00
aI01
aI00
aa(lp28
I00
aI00
aI00
aI00
aI00
aI00
aI00
aI00
aI00
aI00
aI00
aI00
aI00
aI00
aI00
aI00
aa(lp29
I00
aI00
aI00
aI00
aI00
aI00
aI00
aI00
aI00
aI00
aI00
aI00
aI00
aI00
aI00
aI00
aa(lp30
I00
aI00
aI00
aI00
aI00
aI00
aI00
aI00
aI00
aI00
aI00
aI00
aI00
aI00
aI00
aI00
aa(lp31
I00
aI00
aI00
aI00
aI00
aI00
aI00
aI00
aI00
aI01
aI00
aI00
aI00
aI00
aI00
aI00
aa(lp32
I00
aI00
aI00
aI00
aI00
aI00
aI00
aI00
aI00
aI00
aI00
aI00
aI00
aI00
aI00
aI00
aa(lp33
I00
aI00
aI00
aI00
aI00
aI00
aI00
aI00
aI00
aI00
aI00
aI00
aI00
aI00
aI00
aI00
aa(lp34
I00
aI00
aI00
aI00
aI00
aI00
aI01
aI00
aI00
aI00
aI00
aI00
aI00
aI00
aI00
aI00
aa(lp35
I00
aI00
aI00
aI00
aI00
aI00
aI00
aI00
aI00
aI00
aI00
aI00
aI00
aI00
aI00
aI00
aa(lp36
I00
aI00
aI00
aI00
aI00
aI00
aI00
aI00
aI00
aI00
aI00
aI00
aI00
aI00
aI00
aI00
aa(lp37
I00
aI00
aI00
aI00
aI00
aI00
aI00
aI00
aI00
aI00
aI00
aI00
aI00
aI00
aI00
aI00
aa(lp38
I00
aI01
aI00
aI00
aI01
aI00
aI01
aI00
aI01
aI00
aI00
aI00
aI01
aI00
aI00
aI00
aa(lp39
I00
aI00
aI00
aI00
aI01
aI00
aI00
aI00
aI00
aI00
aI01
aI00
aI00
aI00
aI00
aI00
aa(lp40
I00
aI01
aI00
aI00
aI00
aI00
aI01
aI00
aI00
aI00
aI00
aI00
aI01
aI00
aI00
aI00
aa(lp41
I00
aI00
aI00
aI00
aI00
aI00
aI01
aI01
aI00
aI00
aI00
aI00
aI01
aI00
aI00
aI00
aa(lp42
I00
aI00
aI00
aI00
aI00
aI00
aI00
aI00
aI00
aI00
aI00
aI00
aI00
aI00
aI00
aI00
aa(lp43
I00
aI01
aI00
aI01
aI00
aI00
aI00
aI00
aI00
aI00
aI00
aI00
aI00
aI00
aI01
aI00
aa(lp44
I00
aI00
aI00
aI00
aI00
aI00
aI00
aI00
aI00
aI00
aI00
aI00
aI00
aI00
aI00
aI00
aa(lp45
I00
aI00
aI00
aI00
aI00
aI00
aI00
aI01
aI00
aI00
aI00
aI00
aI00
aI01
aI01
aI00
aa(lp46
I00
aI00
aI00
aI00
aI00
aI00
aI00
aI00
aI00
aI00
aI00
aI00
aI00
aI00
aI00
aI00
aa(lp47
I00
aI00
aI00
aI00
aI00
aI00
aI00
aI00
aI00
aI00
aI00
aI00
aI00
aI00
aI00
aI00
aa(lp48
I00
aI00
aI00
aI00
aI00
aI00
aI00
aI00
aI00
aI00
aI00
aI00
aI00
aI00
aI00
aI00
aasS'height'
p49
I16
sbsS'agentPositions'
p50
(lp51
(I00
(I1
I2
tp52
tp53
a(I00
(I30
I13
tp54
tp55
a(I00
(I1
I1
tp56
tp57
a(I00
(I30
I14
tp58
tp59
asg49
I16
sg14
I32
sS'walls'
p60
(igame
Grid
p61
(dp62
g13
I30
sg14
I32
sg15
(lp63
(lp64
I01
aI01
aI01
aI01
aI01
aI01
aI01
aI01
aI01
aI01
aI01
aI01
aI01
aI01
aI01
aI01
aa(lp65
I01
aI00
aI00
aI00
aI00
aI00
aI00
aI00
aI00
aI00
aI00
aI00
aI00
aI00
aI00
aI01
aa(lp66
I01
aI01
aI01
aI01
aI01
aI01
aI01
aI01
aI01
aI01
aI01
aI01
aI01
aI01
aI00
aI01
aa(lp67
I01
aI00
aI00
aI00
aI00
aI00
aI00
aI01
aI00
aI01
aI00
aI00
aI00
aI00
aI00
aI01
aa(lp68
I01
aI01
aI01
aI01
aI01
aI01
aI00
aI00
aI00
aI00
aI00
aI01
aI01
aI01
aI01
aI01
aa(lp69
I01
aI00
aI00
aI00
aI00
aI00
aI00
aI00
aI01
aI01
aI00
aI01
aI00
aI01
aI00
aI01
aa(lp70
I01
aI01
aI00
aI01
aI01
aI00
aI01
aI01
aI01
aI00
aI00
aI00
aI00
aI00
aI00
aI01
aa(lp71
I01
aI00
aI00
aI00
aI01
aI00
aI00
aI01
aI00
aI00
aI01
aI01
aI01
aI00
aI01
aI01
aa(lp72
I01
aI00
aI01
aI00
aI01
aI01
aI00
aI01
aI01
aI00
aI01
aI00
aI00
aI00
aI00
aI01
aa(lp73
I01
aI00
aI01
aI01
aI01
aI00
aI00
aI01
aI01
aI01
aI01
aI00
aI01
aI00
aI01
aI01
aa(lp74
I01
aI00
aI01
aI00
aI01
aI01
aI00
aI00
aI01
aI00
aI01
aI00
aI01
aI00
aI00
aI01
aa(lp75
I01
aI00
aI00
aI00
aI00
aI01
aI00
aI01
aI01
aI00
aI01
aI01
aI01
aI00
aI01
aI01
aa(lp76
I01
aI01
aI00
aI01
aI00
aI01
aI00
aI00
aI00
aI00
aI00
aI00
aI00
aI00
aI00
aI01
aa(lp77
I01
aI00
aI00
aI01
aI00
aI00
aI00
aI00
aI00
aI01
aI01
aI01
aI00
aI01
aI00
aI01
aa(lp78
I01
aI00
aI01
aI01
aI01
aI00
aI01
aI00
aI00
aI00
aI01
aI00
aI00
aI01
aI00
aI01
aa(lp79
I01
aI00
aI00
aI01
aI00
aI00
aI01
aI00
aI00
aI01
aI01
aI00
aI00
aI00
aI00
aI01
aa(lp80
I01
aI00
aI00
aI00
aI00
aI01
aI01
aI00
aI00
aI01
aI00
aI00
aI01
aI00
aI00
aI01
aa(lp81
I01
aI00
aI01
aI00
aI00
aI01
aI00
aI00
aI00
aI01
aI00
aI01
aI01
aI01
aI00
aI01
aa(lp82
I01
aI00
aI01
aI00
aI01
aI01
aI01
aI00
aI00
aI00
aI00
aI00
aI01
aI00
aI00
aI01
aa(lp83
I01
aI00
aI00
aI00
aI00
aI00
aI00
aI00
aI00
aI00
aI01
aI00
aI01
aI00
aI01
aI01
aa(lp84
I01
aI01
aI00
aI01
aI01
aI01
aI00
aI01
aI01
aI00
aI01
aI00
aI00
aI00
aI00
aI01
aa(lp85
I01
aI00
aI00
aI01
aI00
aI01
aI00
aI01
aI00
aI00
aI01
aI01
aI00
aI01
aI00
aI01
aa(lp86
I01
aI01
aI00
aI01
aI00
aI01
aI01
aI01
aI01
aI00
aI00
aI01
aI01
aI01
aI00
aI01
aa(lp87
I01
aI00
aI00
aI00
aI00
aI01
aI00
aI01
aI01
aI00
aI01
aI01
aI00
aI01
aI00
aI01
aa(lp88
I01
aI01
aI00
aI01
aI01
aI01
aI00
aI00
aI01
aI00
aI00
aI01
aI00
aI00
aI00
aI01
aa(lp89
I01
aI00
aI00
aI00
aI00
aI00
aI00
aI01
aI01
aI01
aI00
aI01
aI01
aI00
aI01
aI01
aa(lp90
I01
aI00
aI01
aI00
aI01
aI00
aI01
aI01
aI00
aI00
aI00
aI00
aI00
aI00
aI00
aI01
aa(lp91
I01
aI01
aI01
aI01
aI01
aI00
aI00
aI00
aI00
aI00
aI01
aI01
aI01
aI01
aI01
aI01
aa(lp92
I01
aI00
aI00
aI00
aI00
aI00
aI01
aI00
aI01
aI00
aI00
aI00
aI00
aI00
aI00
aI01
aa(lp93
I01
aI00
aI01
aI01
aI01
aI01
aI01
aI01
aI01
aI01
aI01
aI01
aI01
aI01
aI01
aI01
aa(lp94
I01
aI00
aI00
aI00
aI00
aI00
aI00
aI00
aI00
aI00
aI00
aI00
aI00
aI00
aI00
aI01
aa(lp95
I01
aI01
aI01
aI01
aI01
aI01
aI01
aI01
aI01
aI01
aI01
aI01
aI01
aI01
aI01
aI01
aasg49
I16
sbsS'totalFood'
p96
I40
sS'layoutText'
p97
(lp98
S'%%%%%%%%%%%%%%%%%%%%%%%%%%%%%%%%'
p99
aS'%   %. %.%.%       %     %.%.%4%'
p100
aS'% % %%       %%  %   %%%   %.%2%'
p101
aS'% % %. % %%%    %%%% .%..% % % %'
p102
aS'% % %% % ..% %   %   %%%%% % % %'
p103
aS'% %    %%%%% %%%   %%%.% o % % %'
p104
aS'% %% % ..%.  %.%%%       %   % %'
p105
aS'% %. %%.%%%%        %.%%%%  %% %'
p106
aS'% %%  %%%%.%        %%%%.%% .% %'
p107
aS'% %   %       %%%.%  .%.. % %% %'
p108
aS'% % % o %.%%%   %%% %%%%%    % %'
p109
aS'% % % %%%%%   %   % %.. % %% % %'
p110
aS'% % % %..%. %%%%    %%% % .% % %'
p111
aS'%1%.%   %%%   %  %%       %% % %'
p112
aS'%3%.%.%     %       %.%.% .%   %'
p113
aS'%%%%%%%%%%%%%%%%%%%%%%%%%%%%%%%%'
p114
asbsS'blueTeamName'
p115
S'Blue'
p116
sS'actions'
p117
(lp118
(I1
S'South'
p119
tp120
a(I2
S'North'
p121
tp122
a(I3
g119
tp123
a(I0
g121
tp124
a(I1
g119
tp125
a(I2
g121
tp126
a(I3
g119
tp127
a(I0
g121
tp128
a(I1
g119
tp129
a(I2
g121
tp130
a(I3
g119
tp131
a(I0
g121
tp132
a(I1
g119
tp133
a(I2
g121
tp134
a(I3
g119
tp135
a(I0
g121
tp136
a(I1
g119
tp137
a(I2
g121
tp138
a(I3
g119
tp139
a(I0
g121
tp140
a(I1
g119
tp141
a(I2
g121
tp142
a(I3
g119
tp143
a(I0
g121
tp144
a(I1
g119
tp145
a(I2
g121
tp146
a(I3
g119
tp147
a(I0
g121
tp148
a(I1
g119
tp149
a(I2
g121
tp150
a(I3
g119
tp151
a(I0
g121
tp152
a(I1
g119
tp153
a(I2
g121
tp154
a(I3
g119
tp155
a(I0
g121
tp156
a(I1
g119
tp157
a(I2
g121
tp158
a(I3
g119
tp159
a(I0
g121
tp160
a(I1
g119
tp161
a(I2
g121
tp162
a(I3
g119
tp163
a(I0
g121
tp164
a(I1
g119
tp165
a(I2
g121
tp166
a(I3
g119
tp167
a(I0
g121
tp168
a(I1
S'West'
p169
tp170
a(I2
g121
tp171
a(I3
g119
tp172
a(I0
S'East'
p173
tp174
a(I1
g169
tp175
a(I2
g173
tp176
a(I3
g169
tp177
a(I0
g173
tp178
a(I1
g121
tp179
a(I2
g173
tp180
a(I3
g169
tp181
a(I0
g119
tp182
a(I1
g121
tp183
a(I2
g119
tp184
a(I3
g121
tp185
a(I0
g119
tp186
a(I1
g121
tp187
a(I2
g119
tp188
a(I3
g121
tp189
a(I0
g119
tp190
a(I1
g121
tp191
a(I2
g119
tp192
a(I3
g121
tp193
a(I0
g119
tp194
a(I1
g169
tp195
a(I2
g119
tp196
a(I3
g121
tp197
a(I0
g173
tp198
a(I1
g121
tp199
a(I2
g173
tp200
a(I3
g169
tp201
a(I0
g119
tp202
a(I1
g121
tp203
a(I2
g173
tp204
a(I3
g121
tp205
a(I0
g119
tp206
a(I1
g121
tp207
a(I2
g173
tp208
a(I3
g121
tp209
a(I0
g119
tp210
a(I1
g169
tp211
a(I2
g119
tp212
a(I3
g121
tp213
a(I0
g173
tp214
a(I1
g121
tp215
a(I2
g173
tp216
a(I3
g121
tp217
a(I0
g119
tp218
a(I1
g121
tp219
a(I2
g119
tp220
a(I3
g173
tp221
a(I0
g119
tp222
a(I1
g169
tp223
a(I2
g121
tp224
a(I3
g121
tp225
a(I0
g173
tp226
a(I1
g169
tp227
a(I2
g169
tp228
a(I3
g121
tp229
a(I0
g173
tp230
a(I1
g119
tp231
a(I2
g121
tp232
a(I3
g121
tp233
a(I0
g121
tp234
a(I1
g169
tp235
a(I2
g169
tp236
a(I3
g121
tp237
a(I0
g173
tp238
a(I1
g169
tp239
a(I2
g169
tp240
a(I3
g121
tp241
a(I0
g173
tp242
a(I1
g169
tp243
a(I2
g119
tp244
a(I3
g119
tp245
a(I0
g173
tp246
a(I1
g169
tp247
a(I2
g119
tp248
a(I3
g119
tp249
a(I0
g173
tp250
a(I1
g169
tp251
a(I2
g119
tp252
a(I3
g119
tp253
a(I0
g173
tp254
a(I1
g169
tp255
a(I2
g173
tp256
a(I3
g119
tp257
a(I0
g173
tp258
a(I1
g119
tp259
a(I2
g119
tp260
a(I3
g119
tp261
a(I0
g121
tp262
a(I1
g169
tp263
a(I2
g119
tp264
a(I3
g169
tp265
a(I0
g173
tp266
a(I1
g169
tp267
a(I2
g119
tp268
a(I3
g119
tp269
a(I0
g173
tp270
a(I1
g169
tp271
a(I2
g121
tp272
a(I3
g119
tp273
a(I0
g173
tp274
a(I1
g169
tp275
a(I2
g173
tp276
a(I3
g121
tp277
a(I0
g173
tp278
a(I1
g121
tp279
a(I2
g173
tp280
a(I3
g169
tp281
a(I0
g119
tp282
a(I1
g119
tp283
a(I2
g121
tp284
a(I3
g121
tp285
a(I0
g121
tp286
a(I1
g169
tp287
a(I2
g173
tp288
a(I3
g121
tp289
a(I0
g169
tp290
a(I1
g169
tp291
a(I2
g173
tp292
a(I3
g169
tp293
a(I0
g169
tp294
a(I1
g121
tp295
a(I2
g173
tp296
a(I3
g169
tp297
a(I0
g121
tp298
a(I1
g169
tp299
a(I2
g173
tp300
a(I3
g119
tp301
a(I0
g173
tp302
a(I1
g169
tp303
a(I2
g173
tp304
a(I3
g169
tp305
a(I0
g173
tp306
a(I1
g173
tp307
a(I2
g121
tp308
a(I3
g169
tp309
a(I0
g173
tp310
a(I1
g173
tp311
a(I2
g121
tp312
a(I3
g169
tp313
a(I0
g173
tp314
a(I1
S'Stop'
p315
tp316
a(I2
g121
tp317
a(I3
g169
tp318
a(I0
g119
tp319
a(I1
g119
tp320
a(I2
g121
tp321
a(I3
g169
tp322
a(I0
g119
tp323
a(I1
g119
tp324
a(I2
g121
tp325
a(I3
g119
tp326
a(I0
g173
tp327
a(I1
g119
tp328
a(I2
g121
tp329
a(I3
g119
tp330
a(I0
g173
tp331
a(I1
g119
tp332
a(I2
g121
tp333
a(I3
g119
tp334
a(I0
g169
tp335
a(I1
g119
tp336
a(I2
g169
tp337
a(I3
g173
tp338
a(I0
g121
tp339
a(I1
g119
tp340
a(I2
g169
tp341
a(I3
g173
tp342
a(I0
g121
tp343
a(I1
g119
tp344
a(I2
g169
tp345
a(I3
g169
tp346
a(I0
g121
tp347
a(I1
g119
tp348
a(I2
g169
tp349
a(I3
g169
tp350
a(I0
g121
tp351
a(I1
g119
tp352
a(I2
g169
tp353
a(I3
g121
tp354
a(I0
g121
tp355
a(I1
g119
tp356
a(I2
g169
tp357
a(I3
g169
tp358
a(I0
g121
tp359
a(I1
g119
tp360
a(I2
g119
tp361
a(I3
g169
tp362
a(I0
g121
tp363
a(I1
g119
tp364
a(I2
g119
tp365
a(I3
g119
tp366
a(I0
g121
tp367
a(I1
g169
tp368
a(I2
g119
tp369
a(I3
g121
tp370
a(I0
g121
tp371
a(I1
g169
tp372
a(I2
g169
tp373
a(I3
g121
tp374
a(I0
g121
tp375
a(I1
g121
tp376
a(I2
g169
tp377
a(I3
g173
tp378
a(I0
g121
tp379
a(I1
g121
tp380
a(I2
g119
tp381
a(I3
g119
tp382
a(I0
g121
tp383
a(I1
g121
tp384
a(I2
g119
tp385
a(I3
g173
tp386
a(I0
g173
tp387
a(I1
g121
tp388
a(I2
g119
tp389
a(I3
g119
tp390
a(I0
g173
tp391
a(I1
g169
tp392
a(I2
g173
tp393
a(I3
g173
tp394
a(I0
g119
tp395
a(I1
g121
tp396
a(I2
g119
tp397
a(I3
g173
tp398
a(I0
g119
tp399
a(I1
g121
tp400
a(I2
g119
tp401
a(I3
g169
tp402
a(I0
g119
tp403
a(I1
g121
tp404
a(I2
g173
tp405
a(I3
g169
tp406
a(I0
g119
tp407
a(I1
g169
tp408
a(I2
g173
tp409
a(I3
g121
tp410
a(I0
g173
tp411
a(I1
g121
tp412
a(I2
g121
tp413
a(I3
g121
tp414
a(I0
g173
tp415
a(I1
g121
tp416
a(I2
g173
tp417
a(I3
g169
tp418
a(I0
g173
tp419
a(I1
g169
tp420
a(I2
g173
tp421
a(I3
g119
tp422
a(I0
g121
tp423
a(I1
g169
tp424
a(I2
g173
tp425
a(I3
g173
tp426
a(I0
g121
tp427
a(I1
g119
tp428
a(I2
g173
tp429
a(I3
g119
tp430
a(I0
g121
tp431
a(I1
g169
tp432
a(I2
g173
tp433
a(I3
g173
tp434
a(I0
g173
tp435
a(I1
g169
tp436
a(I2
g121
tp437
a(I3
g173
tp438
a(I0
g173
tp439
a(I1
g169
tp440
a(I2
g121
tp441
a(I3
g169
tp442
a(I0
g173
tp443
a(I1
g169
tp444
a(I2
g121
tp445
a(I3
g169
tp446
a(I0
g173
tp447
a(I1
g169
tp448
a(I2
g121
tp449
a(I3
g119
tp450
a(I0
g173
tp451
a(I1
g169
tp452
a(I2
g121
tp453
a(I3
g119
tp454
a(I0
g173
tp455
a(I1
g119
tp456
a(I2
g121
tp457
a(I3
g119
tp458
a(I0
g119
tp459
a(I1
g169
tp460
a(I2
g173
tp461
a(I3
g119
tp462
a(I0
g173
tp463
a(I1
g169
tp464
a(I2
g173
tp465
a(I3
g173
tp466
a(I0
g173
tp467
a(I1
g169
tp468
a(I2
g169
tp469
a(I3
g173
tp470
a(I0
g173
tp471
a(I1
g169
tp472
a(I2
g169
tp473
a(I3
g119
tp474
a(I0
g119
tp475
a(I1
g169
tp476
a(I2
g119
tp477
a(I3
g121
tp478
a(I0
g173
tp479
a(I1
g169
tp480
a(I2
g119
tp481
a(I3
g173
tp482
a(I0
g119
tp483
a(I1
g121
tp484
a(I2
g119
tp485
a(I3
g173
tp486
a(I0
g173
tp487
a(I1
g119
tp488
a(I2
g119
tp489
a(I3
g173
tp490
a(I0
g173
tp491
a(I1
g119
tp492
a(I2
g173
tp493
a(I3
g173
tp494
a(I0
g119
tp495
a(I1
g119
tp496
a(I2
g119
tp497
a(I3
g119
tp498
a(I0
g173
tp499
a(I1
g119
tp500
a(I2
g119
tp501
a(I3
g173
tp502
a(I0
g173
tp503
a(I1
g119
tp504
a(I2
g169
tp505
a(I3
g169
tp506
a(I0
g173
tp507
a(I1
g119
tp508
a(I2
g169
tp509
a(I3
g121
tp510
a(I0
g119
tp511
a(I1
g119
tp512
a(I2
g169
tp513
a(I3
g121
tp514
a(I0
g121
tp515
a(I1
g119
tp516
a(I2
g121
tp517
a(I3
g173
tp518
a(I0
g169
tp519
a(I1
g119
tp520
a(I2
g119
tp521
a(I3
g169
tp522
a(I0
g169
tp523
a(I1
g119
tp524
a(I2
g173
tp525
a(I3
g121
tp526
a(I0
g169
tp527
a(I1
g119
tp528
a(I2
g173
tp529
a(I3
g121
tp530
a(I0
g121
tp531
a(I1
g119
tp532
a(I2
g173
tp533
a(I3
g121
tp534
a(I0
g169
tp535
a(I1
g169
tp536
a(I2
g121
tp537
a(I3
g169
tp538
a(I0
g169
tp539
a(I1
g169
tp540
a(I2
g173
tp541
a(I3
g121
tp542
a(I0
g121
tp543
a(I1
g121
tp544
a(I2
g121
tp545
a(I3
g119
tp546
a(I0
g169
tp547
a(I1
g121
tp548
a(I2
g121
tp549
a(I3
g169
tp550
a(I0
g121
tp551
a(I1
g121
tp552
a(I2
g119
tp553
a(I3
g173
tp554
a(I0
g121
tp555
a(I1
g121
tp556
a(I2
g173
tp557
a(I3
g173
tp558
a(I0
g173
tp559
a(I1
g169
tp560
a(I2
g119
tp561
a(I3
g119
tp562
a(I0
g121
tp563
a(I1
g121
tp564
a(I2
g169
tp565
a(I3
g173
tp566
a(I0
g173
tp567
a(I1
g121
tp568
a(I2
g121
tp569
a(I3
g173
tp570
a(I0
g173
tp571
a(I1
g121
tp572
a(I2
g169
tp573
a(I3
g173
tp574
a(I0
g119
tp575
a(I1
g121
tp576
a(I2
g169
tp577
a(I3
g119
tp578
a(I0
g173
tp579
a(I1
g169
tp580
a(I2
g119
tp581
a(I3
g119
tp582
a(I0
g173
tp583
a(I1
g121
tp584
a(I2
g119
tp585
a(I3
g119
tp586
a(I0
g121
tp587
a(I1
g169
tp588
a(I2
g173
tp589
a(I3
g119
tp590
a(I0
g173
tp591
a(I1
g169
tp592
a(I2
g121
tp593
a(I3
g173
tp594
a(I0
g173
tp595
a(I1
g119
tp596
a(I2
g169
tp597
a(I3
g173
tp598
a(I0
g173
tp599
a(I1
g169
tp600
a(I2
g121
tp601
a(I3
g169
tp602
a(I0
g173
tp603
a(I1
g169
tp604
a(I2
g121
tp605
a(I3
g169
tp606
a(I0
g119
tp607
a(I1
g169
tp608
a(I2
g169
tp609
a(I3
g121
tp610
a(I0
g119
tp611
a(I1
g169
tp612
a(I2
g169
tp613
a(I3
g121
tp614
a(I0
g169
tp615
a(I1
g169
tp616
a(I2
g173
tp617
a(I3
g121
tp618
a(I0
g173
tp619
a(I1
g119
tp620
a(I2
g173
tp621
a(I3
g121
tp622
a(I0
g121
tp623
a(I1
g169
tp624
a(I2
g119
tp625
a(I3
g169
tp626
a(I0
g121
tp627
a(I1
g169
tp628
a(I2
g173
tp629
a(I3
g121
tp630
a(I0
g169
tp631
a(I1
g169
tp632
a(I2
g173
tp633
a(I3
g121
tp634
a(I0
g169
tp635
a(I1
g169
tp636
a(I2
g173
tp637
a(I3
g121
tp638
a(I0
g169
tp639
a(I1
g119
tp640
a(I2
g119
tp641
a(I3
g121
tp642
a(I0
g169
tp643
a(I1
g119
tp644
a(I2
g169
tp645
a(I3
g169
tp646
a(I0
g119
tp647
a(I1
g119
tp648
a(I2
g169
tp649
a(I3
g121
tp650
a(I0
g169
tp651
a(I1
g119
tp652
a(I2
g119
tp653
a(I3
g169
tp654
a(I0
g169
tp655
a(I1
g119
tp656
a(I2
g169
tp657
a(I3
g169
tp658
a(I0
g121
tp659
a(I1
g119
tp660
a(I2
g169
tp661
a(I3
g119
tp662
a(I0
g169
tp663
a(I1
g119
tp664
a(I2
g169
tp665
a(I3
g169
tp666
a(I0
g169
tp667
a(I1
g119
tp668
a(I2
g169
tp669
a(I3
g169
tp670
a(I0
g169
tp671
a(I1
g119
tp672
a(I2
g119
tp673
a(I3
g121
tp674
a(I0
g119
tp675
a(I1
g119
tp676
a(I2
g121
tp677
a(I3
g119
tp678
a(I0
g119
tp679
a(I1
g119
tp680
a(I2
g173
tp681
a(I3
g169
tp682
a(I0
g119
tp683
a(I1
g119
tp684
a(I2
g173
tp685
a(I3
g119
tp686
a(I0
g173
tp687
a(I1
g169
tp688
a(I2
g173
tp689
a(I3
g121
tp690
a(I0
g119
tp691
a(I1
g169
tp692
a(I2
g121
tp693
a(I3
g169
tp694
a(I0
g173
tp695
a(I1
g121
tp696
a(I2
g173
tp697
a(I3
g169
tp698
a(I0
g173
tp699
a(I1
g121
tp700
a(I2
g121
tp701
a(I3
g169
tp702
a(I0
g121
tp703
a(I1
g121
tp704
a(I2
g169
tp705
a(I3
g121
tp706
a(I0
g173
tp707
a(I1
g121
tp708
a(I2
g121
tp709
a(I3
g121
tp710
a(I0
g173
tp711
a(I1
g169
tp712
a(I2
g121
tp713
a(I3
g173
tp714
a(I0
g121
tp715
a(I1
g121
tp716
a(I2
g121
tp717
a(I3
g173
tp718
a(I0
g173
tp719
a(I1
g121
tp720
a(I2
g121
tp721
a(I3
g121
tp722
a(I0
g169
tp723
a(I1
g121
tp724
a(I2
g173
tp725
a(I3
g173
tp726
a(I0
g121
tp727
a(I1
g169
tp728
a(I2
g173
tp729
a(I3
g169
tp730
a(I0
g121
tp731
a(I1
g121
tp732
a(I2
g119
tp733
a(I3
g121
tp734
a(I0
g121
tp735
a(I1
g121
tp736
a(I2
g173
tp737
a(I3
g169
tp738
a(I0
g121
tp739
a(I1
g169
tp740
a(I2
g121
tp741
a(I3
g169
tp742
a(I0
g121
tp743
a(I1
g169
tp744
a(I2
g169
tp745
a(I3
g121
tp746
a(I0
g121
tp747
a(I1
g119
tp748
a(I2
g169
tp749
a(I3
g169
tp750
a(I0
g121
tp751
a(I1
g169
tp752
a(I2
g169
tp753
a(I3
g169
tp754
a(I0
g121
tp755
a(I1
g169
tp756
a(I2
g121
tp757
a(I3
g119
tp758
a(I0
g121
tp759
a(I1
g169
tp760
a(I2
g169
tp761
a(I3
g121
tp762
a(I0
g121
tp763
a(I1
g169
tp764
a(I2
g169
tp765
a(I3
g173
tp766
a(I0
g121
tp767
a(I1
g169
tp768
a(I2
g169
tp769
a(I3
g173
tp770
a(I0
g121
tp771
a(I1
g119
tp772
a(I2
g169
tp773
a(I3
g119
tp774
a(I0
g173
tp775
a(I1
g169
tp776
a(I2
g121
tp777
a(I3
g173
tp778
a(I0
g173
tp779
a(I1
g169
tp780
a(I2
g119
tp781
a(I3
g173
tp782
a(I0
g119
tp783
a(I1
g169
tp784
a(I2
g169
tp785
a(I3
g119
tp786
a(I0
g119
tp787
a(I1
g169
tp788
a(I2
g169
tp789
a(I3
g173
tp790
a(I0
g119
tp791
a(I1
g169
tp792
a(I2
g121
tp793
a(I3
g169
tp794
a(I0
g119
tp795
a(I1
g169
tp796
a(I2
g169
tp797
a(I3
g121
tp798
a(I0
g173
tp799
a(I1
g169
tp800
a(I2
g173
tp801
a(I3
g169
tp802
a(I0
g119
tp803
a(I1
g121
tp804
a(I2
g119
tp805
a(I3
g169
tp806
a(I0
g119
tp807
a(I1
g169
tp808
a(I2
g119
tp809
a(I3
g121
tp810
a(I0
g119
tp811
a(I1
g173
tp812
a(I2
g119
tp813
a(I3
g169
tp814
a(I0
g173
tp815
a(I1
g119
tp816
a(I2
g119
tp817
a(I3
g169
tp818
a(I0
g119
tp819
a(I1
g119
tp820
a(I2
g119
tp821
a(I3
g119
tp822
a(I0
g119
tp823
a(I1
g119
tp824
a(I2
g173
tp825
a(I3
g121
tp826
a(I0
g173
tp827
a(I1
g169
tp828
a(I2
g119
tp829
a(I3
g173
tp830
a(I0
g173
tp831
a(I1
g169
tp832
a(I2
g121
tp833
a(I3
g173
tp834
a(I0
g121
tp835
a(I1
g121
tp836
a(I2
g169
tp837
a(I3
g119
tp838
a(I0
g173
tp839
a(I1
g119
tp840
a(I2
g121
tp841
a(I3
g173
tp842
a(I0
g173
tp843
a(I1
g315
tp844
a(I2
g169
tp845
a(I3
g173
tp846
a(I0
g173
tp847
a(I1
g119
tp848
a(I2
g169
tp849
a(I3
g119
tp850
a(I0
g173
tp851
a(I1
g119
tp852
a(I2
g169
tp853
a(I3
g173
tp854
a(I0
g173
tp855
a(I1
g119
tp856
a(I2
g121
tp857
a(I3
g169
tp858
a(I0
g173
tp859
a(I1
g119
tp860
a(I2
g121
tp861
a(I3
g119
tp862
a(I0
g121
tp863
a(I1
g119
tp864
a(I2
g121
tp865
a(I3
g169
tp866
a(I0
g173
tp867
a(I1
g119
tp868
a(I2
g121
tp869
a(I3
g169
tp870
a(I0
g173
tp871
a(I1
g119
tp872
a(I2
g169
tp873
a(I3
g119
tp874
a(I0
g173
tp875
a(I1
g119
tp876
a(I2
g169
tp877
a(I3
g119
tp878
a(I0
g173
tp879
a(I1
g119
tp880
a(I2
g119
tp881
a(I3
g119
tp882
a(I0
g173
tp883
a(I1
g119
tp884
a(I2
g119
tp885
a(I3
g119
tp886
a(I0
g121
tp887
a(I1
g119
tp888
a(I2
g119
tp889
a(I3
g169
tp890
a(I0
g121
tp891
a(I1
g119
tp892
a(I2
g119
tp893
a(I3
g119
tp894
a(I0
g121
tp895
a(I1
g169
tp896
a(I2
g119
tp897
a(I3
g121
tp898
a(I0
g121
tp899
a(I1
g169
tp900
a(I2
g119
tp901
a(I3
g173
tp902
a(I0
g121
tp903
a(I1
g121
tp904
a(I2
g119
tp905
a(I3
g173
tp906
a(I0
g121
tp907
a(I1
g121
tp908
a(I2
g119
tp909
a(I3
g121
tp910
a(I0
g121
tp911
a(I1
g121
tp912
a(I2
g119
tp913
a(I3
g169
tp914
a(I0
g121
tp915
a(I1
g121
tp916
a(I2
g119
tp917
a(I3
g169
tp918
a(I0
g121
tp919
a(I1
g169
tp920
a(I2
g119
tp921
a(I3
g119
tp922
a(I0
g121
tp923
a(I1
g169
tp924
a(I2
g119
tp925
a(I3
g119
tp926
a(I0
g121
tp927
a(I1
g169
tp928
a(I2
g119
tp929
a(I3
g121
tp930
a(I0
g121
tp931
a(I1
g119
tp932
a(I2
g121
tp933
a(I3
g121
tp934
a(I0
g173
tp935
a(I1
g119
tp936
a(I2
g121
tp937
a(I3
g173
tp938
a(I0
g173
tp939
a(I1
g119
tp940
a(I2
g121
tp941
a(I3
g121
tp942
a(I0
g119
tp943
a(I1
g169
tp944
a(I2
g121
tp945
a(I3
g173
tp946
a(I0
g119
tp947
a(I1
g169
tp948
a(I2
g121
tp949
a(I3
g173
tp950
a(I0
g119
tp951
a(I1
g169
tp952
a(I2
g121
tp953
a(I3
g173
tp954
a(I0
g119
tp955
a(I1
g169
tp956
a(I2
g121
tp957
a(I3
g119
tp958
a(I0
g173
tp959
a(I1
g169
tp960
a(I2
g121
tp961
a(I3
g121
tp962
a(I0
g119
tp963
a(I1
g169
tp964
a(I2
g121
tp965
a(I3
g169
tp966
a(I0
g119
tp967
a(I1
g119
tp968
a(I2
g121
tp969
a(I3
g169
tp970
a(I0
g119
tp971
a(I1
g169
tp972
a(I2
g121
tp973
a(I3
g119
tp974
a(I0
g173
tp975
a(I1
g169
tp976
a(I2
g121
tp977
a(I3
g169
tp978
a(I0
g119
tp979
a(I1
g169
tp980
a(I2
g121
tp981
a(I3
g121
tp982
a(I0
g119
tp983
a(I1
g169
tp984
a(I2
g173
tp985
a(I3
g173
tp986
a(I0
g173
tp987
a(I1
g169
tp988
a(I2
g173
tp989
a(I3
g173
tp990
a(I0
g173
tp991
a(I1
g169
tp992
a(I2
g119
tp993
a(I3
g173
tp994
a(I0
g121
tp995
a(I1
g121
tp996
a(I2
g119
tp997
a(I3
g119
tp998
a(I0
g173
tp999
a(I1
g169
tp1000
a(I2
g119
tp1001
a(I3
g121
tp1002
a(I0
g173
tp1003
a(I1
g169
tp1004
a(I2
g119
tp1005
a(I3
g169
tp1006
a(I0
g173
tp1007
a(I1
g121
tp1008
a(I2
g173
tp1009
a(I3
g169
tp1010
a(I0
g173
tp1011
a(I1
g169
tp1012
a(I2
g119
tp1013
a(I3
g169
tp1014
a(I0
g173
tp1015
a(I1
g173
tp1016
a(I2
g119
tp1017
a(I3
g121
tp1018
a(I0
g173
tp1019
a(I1
g121
tp1020
a(I2
g119
tp1021
a(I3
g169
tp1022
a(I0
g121
tp1023
a(I1
g173
tp1024
a(I2
g119
tp1025
a(I3
g169
tp1026
a(I0
g173
tp1027
a(I1
g173
tp1028
a(I2
g173
tp1029
a(I3
g121
tp1030
a(I0
g173
tp1031
a(I1
g121
tp1032
a(I2
g119
tp1033
a(I3
g119
tp1034
a(I0
g173
tp1035
a(I1
g121
tp1036
a(I2
g173
tp1037
a(I3
g173
tp1038
a(I0
g173
tp1039
a(I1
g169
tp1040
a(I2
g173
tp1041
a(I3
g173
tp1042
a(I0
g173
tp1043
a(I1
g169
tp1044
a(I2
g121
tp1045
a(I3
g119
tp1046
a(I0
g173
tp1047
a(I1
g169
tp1048
a(I2
g173
tp1049
a(I3
g119
tp1050
a(I0
g119
tp1051
a(I1
g169
tp1052
a(I2
g173
tp1053
a(I3
g173
tp1054
a(I0
g119
tp1055
a(I1
g119
tp1056
a(I2
g119
tp1057
a(I3
g119
tp1058
a(I0
g119
tp1059
a(I1
g119
tp1060
a(I2
g121
tp1061
a(I3
g119
tp1062
a(I0
g119
tp1063
a(I1
g119
tp1064
a(I2
g173
tp1065
a(I3
g119
tp1066
a(I0
g169
tp1067
a(I1
g119
tp1068
a(I2
g121
tp1069
a(I3
g119
tp1070
a(I0
g169
tp1071
a(I1
g119
tp1072
a(I2
g119
tp1073
a(I3
g119
tp1074
a(I0
g169
tp1075
a(I1
g119
tp1076
a(I2
g173
tp1077
a(I3
g169
tp1078
a(I0
g119
tp1079
a(I1
g119
tp1080
a(I2
g173
tp1081
a(I3
g169
tp1082
a(I0
g169
tp1083
a(I1
g119
tp1084
a(I2
g121
tp1085
a(I3
g169
tp1086
a(I0
g119
tp1087
a(I1
g119
tp1088
a(I2
g121
tp1089
a(I3
g119
tp1090
a(I0
g173
tp1091
a(I1
g119
tp1092
a(I2
g173
tp1093
a(I3
g119
tp1094
a(I0
g121
tp1095
a(I1
g119
tp1096
a(I2
g173
tp1097
a(I3
g173
tp1098
a(I0
g121
tp1099
a(I1
g119
tp1100
a(I2
g121
tp1101
a(I3
g173
tp1102
a(I0
g121
tp1103
a(I1
g169
tp1104
a(I2
g119
tp1105
a(I3
g173
tp1106
a(I0
g121
tp1107
a(I1
g169
tp1108
a(I2
g119
tp1109
a(I3
g121
tp1110
a(I0
g121
tp1111
a(I1
g121
tp1112
a(I2
g169
tp1113
a(I3
g173
tp1114
a(I0
g121
tp1115
a(I1
g121
tp1116
a(I2
g169
tp1117
a(I3
g173
tp1118
a(I0
g121
tp1119
a(I1
g121
tp1120
a(I2
g121
tp1121
a(I3
g173
tp1122
a(I0
g121
tp1123
a(I1
g121
tp1124
a(I2
g173
tp1125
a(I3
g173
tp1126
a(I0
g121
tp1127
a(I1
g169
tp1128
a(I2
g173
tp1129
a(I3
g173
tp1130
a(I0
g121
tp1131
a(I1
g169
tp1132
a(I2
g173
tp1133
a(I3
g173
tp1134
a(I0
g121
tp1135
a(I1
g169
tp1136
a(I2
g119
tp1137
a(I3
g121
tp1138
a(I0
g121
tp1139
a(I1
g119
tp1140
a(I2
g169
tp1141
a(I3
g121
tp1142
a(I0
g173
tp1143
a(I1
g119
tp1144
a(I2
g121
tp1145
a(I3
g121
tp1146
a(I0
g173
tp1147
a(I1
g119
tp1148
a(I2
g173
tp1149
a(I3
g173
tp1150
a(I0
g119
tp1151
a(I1
g169
tp1152
a(I2
g119
tp1153
a(I3
g173
tp1154
a(I0
g119
tp1155
a(I1
g169
tp1156
a(I2
g169
tp1157
a(I3
g173
tp1158
a(I0
g119
tp1159
a(I1
g169
tp1160
a(I2
g121
tp1161
a(I3
g119
tp1162
a(I0
g119
tp1163
a(I1
g169
tp1164
a(I2
g169
tp1165
a(I3
g119
tp1166
a(I0
g173
tp1167
a(I1
g169
tp1168
a(I2
g169
tp1169
a(I3
g119
tp1170
a(I0
g119
tp1171
a(I1
g169
tp1172
a(I2
g119
tp1173
a(I3
g119
tp1174
a(I0
g119
tp1175
a(I1
g121
tp1176
a(I2
g173
tp1177
a(I3
g173
tp1178
a(I0
g169
tp1179
a(I1
g169
tp1180
a(I2
g119
tp1181
a(I3
g173
tp1182
a(I0
g173
tp1183
a(I1
g169
tp1184
a(I2
g169
tp1185
a(I3
g121
tp1186
a(I0
g119
tp1187
a(I1
g121
tp1188
a(I2
g121
tp1189
a(I3
g121
tp1190
a(I0
g173
tp1191
a(I1
g169
tp1192
a(I2
g173
tp1193
a(I3
g121
tp1194
a(I0
g119
tp1195
a(I1
g169
tp1196
a(I2
g119
tp1197
a(I3
g121
tp1198
a(I0
g119
tp1199
a(I1
g121
tp1200
a(I2
g119
tp1201
a(I3
g121
tp1202
a(I0
g173
tp1203
a(I1
g169
tp1204
a(I2
g173
tp1205
a(I3
g121
tp1206
a(I0
g173
tp1207
a(I1
g119
tp1208
a(I2
g173
tp1209
a(I3
g121
tp1210
a(I0
g121
tp1211
a(I1
g119
tp1212
a(I2
g119
tp1213
a(I3
g121
tp1214
a(I0
g173
tp1215
a(I1
g119
tp1216
a(I2
g121
tp1217
a(I3
g121
tp1218
a(I0
g173
tp1219
a(I1
g119
tp1220
a(I2
g169
tp1221
a(I3
g121
tp1222
a(I0
g173
tp1223
a(I1
g119
tp1224
a(I2
g169
tp1225
a(I3
g121
tp1226
a(I0
g173
tp1227
a(I1
g119
tp1228
a(I2
g121
tp1229
a(I3
g121
tp1230
a(I0
g173
tp1231
a(I1
g119
tp1232
a(I2
g169
tp1233
a(I3
g121
tp1234
a(I0
g173
tp1235
a(I1
g119
tp1236
a(I2
g169
tp1237
a(I3
g119
tp1238
a(I0
g119
tp1239
a(I1
g119
tp1240
a(I2
g169
tp1241
a(I3
g119
tp1242
a(I0
g173
tp1243
a(I1
g119
tp1244
a(I2
g169
tp1245
a(I3
g119
tp1246
a(I0
g173
tp1247
a(I1
g119
tp1248
a(I2
g169
tp1249
a(I3
g119
tp1250
a(I0
g119
tp1251
a(I1
g119
tp1252
a(I2
g169
tp1253
a(I3
g119
tp1254
a(I0
g173
tp1255
a(I1
g169
tp1256
a(I2
g119
tp1257
a(I3
g119
tp1258
a(I0
g173
tp1259
a(I1
g169
tp1260
a(I2
g169
tp1261
a(I3
g119
tp1262
a(I0
g119
tp1263
a(I1
g121
tp1264
a(I2
g169
tp1265
a(I3
g119
tp1266
a(I0
g173
tp1267
a(I1
g121
tp1268
a(I2
g119
tp1269
a(I3
g119
tp1270
a(I0
g173
tp1271
a(I1
g121
tp1272
a(I2
g119
tp1273
a(I3
g119
tp1274
a(I0
g119
tp1275
a(I1
g121
tp1276
a(I2
g119
tp1277
a(I3
g119
tp1278
a(I0
g173
tp1279
a(I1
g169
tp1280
a(I2
g173
tp1281
a(I3
g119
tp1282
a(I0
g173
tp1283
a(I1
g169
tp1284
a(I2
g173
tp1285
a(I3
g119
tp1286
a(I0
g119
tp1287
a(I1
g169
tp1288
a(I2
g121
tp1289
a(I3
g169
tp1290
a(I0
g121
tp1291
a(I1
g119
tp1292
a(I2
g173
tp1293
a(I3
g169
tp1294
a(I0
g169
tp1295
a(I1
g119
tp1296
a(I2
g169
tp1297
a(I3
g121
tp1298
a(I0
g169
tp1299
a(I1
g119
tp1300
a(I2
g119
tp1301
a(I3
g121
tp1302
a(I0
g121
tp1303
a(I1
g169
tp1304
a(I2
g119
tp1305
a(I3
g121
tp1306
a(I0
g169
tp1307
a(I1
g169
tp1308
a(I2
g173
tp1309
a(I3
g121
tp1310
a(I0
g169
tp1311
a(I1
g169
tp1312
a(I2
g173
tp1313
a(I3
g169
tp1314
a(I0
g169
tp1315
a(I1
g169
tp1316
a(I2
g173
tp1317
a(I3
g169
tp1318
a(I0
g121
tp1319
a(I1
g169
tp1320
a(I2
g173
tp1321
a(I3
g169
tp1322
a(I0
g169
tp1323
asS'length'
p1324
I1200
sS'agents'
p1325
(lp1326
(igame
Agent
p1327
(dp1328
S'index'
p1329
I0
sba(igame
Agent
p1330
(dp1331
g1329
I0
sba(igame
Agent
p1332
(dp1333
g1329
I0
sba(igame
Agent
p1334
(dp1335
g1329
I0
sbasS'redTeamName'
p1336
S'Red'
p1337
s.